Certificate:
    Data:
        Version: 3 (0x2)
        Serial Number:
            47:6f:6e:67:4c:69:61:6e:79:61:6e:67:20:13:01:70
    Signature Algorithm: sha256WithRSAEncryption
        Issuer: OU=ec, O=Huawei, L=ShenZhen, ST=GuangDong, C=CN, CN=www.example.com
        Validity
            Not Before: Apr 18 00:00:00 2016 GMT
            Not After : Dec 31 23:59:59 2099 GMT
        Subject: OU=ec, O=Huawei, L=ShenZhen, ST=GuangDong, C=CN, CN=www.example.com
        Subject Public Key Info:
            Public Key Algorithm: rsaEncryption
                Public-Key: (4096 bit)
                Modulus:
                    00:e8:05:61:b1:5b:49:7c:3a:d8:58:80:ad:bc:c4:
                    90:65:b2:b9:32:07:43:f9:ee:3e:58:3a:8f:49:5c:
                    3e:e6:b6:37:f9:f3:8c:e1:d5:cc:20:78:a0:a0:b6:
                    03:9b:42:30:4d:1a:03:fa:70:48:2f:21:99:60:bc:
                    6b:dc:19:59:c2:8a:e2:03:20:1a:eb:71:fb:50:e7:
                    45:4a:b4:8c:cd:92:cb:91:be:7d:51:a1:88:0f:4a:
                    5e:99:73:5a:07:3e:1c:64:1e:e7:65:10:1a:23:9f:
                    7b:30:d9:9a:79:9b:54:41:12:34:04:94:c1:62:4b:
                    86:ca:34:68:09:bd:58:a5:dd:5b:9e:02:92:0a:43:
                    13:9d:73:ac:66:ee:1a:6e:b4:88:8a:41:49:3b:ce:
                    bd:98:93:2f:f0:a3:0f:02:26:6a:c5:94:d9:65:52:
                    eb:20:a7:d8:2b:f1:91:30:f0:25:7d:a8:41:df:c0:
                    54:10:39:ad:02:8f:47:bd:53:df:0e:54:74:83:83:
                    cd:23:d9:99:5a:9c:ca:4f:94:18:27:b4:08:2c:1b:
                    76:c6:99:a0:45:5a:60:69:27:78:63:72:e9:3c:be:
                    5a:71:ca:d4:36:17:63:b7:cb:e4:72:a9:d0:6e:2b:
                    25:fb:c7:24:77:75:10:fd:c5:c3:20:87:a9:9e:31:
                    ed:f1:ff:f5:b3:eb:d4:7b:29:12:52:20:fd:5f:f7:
                    e8:86:59:9b:35:c7:b6:ec:97:4c:62:cc:05:e9:0d:
                    9f:8e:33:d7:ed:12:24:c3:70:5c:25:02:95:d3:fe:
                    a2:bd:0a:08:57:07:d9:3c:4c:cc:cc:48:b6:4b:ea:
                    b5:df:95:ba:82:d3:74:f7:9f:af:4a:9f:44:ff:01:
                    aa:1b:90:40:97:1e:d2:a5:4c:09:dc:23:c1:c9:a7:
                    02:8d:2b:e2:7e:c6:b7:1c:46:69:d3:3c:4f:f4:e5:
                    46:23:5e:e4:6a:43:25:d4:b7:23:95:64:52:fc:d0:
                    d7:a1:3f:2e:d4:42:64:17:b7:f7:7f:d7:28:d5:fd:
                    58:a6:27:24:9f:b6:37:f7:98:ae:86:04:2b:80:a9:
                    1b:53:e9:30:26:d1:1b:11:27:62:df:ff:f4:58:90:
                    bd:50:97:c6:a8:54:d4:4c:2f:03:7c:87:c4:58:5e:
                    fe:3f:49:7a:e1:6c:b7:c7:8a:5b:d2:4f:17:46:96:
                    bc:12:0b:92:55:ef:cc:d6:d4:bf:88:95:61:bb:21:
                    b8:32:ab:89:3d:5c:f1:dc:56:87:e8:97:11:c0:79:
                    11:cb:e3:c3:c4:d3:10:17:03:ea:6c:cc:f9:16:4c:
                    88:c0:c2:0c:19:1c:f8:85:b0:39:fc:13:34:22:98:
                    db:2b:0d
                Exponent: 65537 (0x10001)
        X509v3 extensions:
            X509v3 Basic Constraints: 
                CA:TRUE
            X509v3 Key Usage: 
                Certificate Sign, CRL Sign
            Netscape Comment: 
                Huawei Switch & Enterprise Communications Product Line Root Certificate
            X509v3 Subject Key Identifier: 
                82:E7:5D:B7:BC:92:DA:CE:39:04:E2:86:F2:C9:43:02:A3:2C:9F:0A
            X509v3 Authority Key Identifier: 
                keyid:82:E7:5D:B7:BC:92:DA:CE:39:04:E2:86:F2:C9:43:02:A3:2C:9F:0A

            X509v3 Extended Key Usage: 
                TLS Web Server Authentication, TLS Web Client Authentication, Code Signing, E-mail Protection
    Signature Algorithm: sha256WithRSAEncryption
         9a:8c:84:ba:ea:af:8e:be:ef:97:56:87:20:a1:73:4d:7b:a0:
         86:04:5a:af:6e:61:a4:70:ca:9e:0b:9f:42:9a:aa:76:96:ea:
         fe:d3:41:ce:f7:c0:4c:50:11:33:97:00:82:9b:f4:e8:e9:6a:
         49:d4:56:f6:7b:ad:72:2d:2a:f4:a8:8b:80:21:a2:6c:10:8e:
         ae:94:6f:86:eb:c3:02:50:68:bf:5d:57:1d:50:83:8b:7e:cd:
         a0:b4:32:e9:bf:fc:79:52:bc:86:62:d3:ce:9d:b3:b5:3b:ad:
         11:5b:65:9b:19:29:65:a6:77:bc:b5:61:2f:b6:38:7c:5d:2e:
         5e:64:84:d1:e1:36:55:44:67:44:f1:61:d0:59:91:3d:d6:38:
         13:77:de:66:5b:81:13:fc:cb:30:10:d9:c3:54:de:19:7e:be:
         d7:98:f9:c6:28:49:26:bb:ad:1c:3f:40:82:65:d3:56:70:09:
         b2:33:29:69:a6:68:54:fb:be:e5:5a:ca:36:a6:c7:ed:cc:5c:
         19:e3:fa:9e:fc:1f:af:bf:fa:5f:6a:b2:c9:bb:1f:d9:43:b4:
         43:70:14:d7:99:be:0f:56:36:79:72:21:26:67:f4:f1:76:7f:
         83:a3:a8:26:fc:46:eb:a6:f5:ab:4e:84:0e:66:e3:cf:d0:49:
         50:ff:7e:db:42:c9:94:2a:dc:b5:7b:21:77:3d:4a:c2:9d:73:
         78:6e:d7:49:1a:f4:88:11:af:a6:70:5d:2f:10:40:9c:51:a8:
         f3:af:af:32:66:b1:99:6b:ea:9c:21:9b:95:30:f1:ab:7b:91:
         ae:56:29:a0:fa:4e:01:1d:f7:49:29:12:17:43:31:82:1b:fa:
         ce:79:90:42:0d:cc:eb:96:be:13:8c:a2:54:d5:20:bf:93:5c:
         46:0e:55:64:1a:f0:14:3c:9a:21:9b:39:e0:18:05:fb:7d:66:
         02:4e:7f:2d:8b:d3:5d:43:8b:b7:86:e3:e4:38:97:f7:13:80:
         9f:68:c0:fe:0f:d1:71:e5:a6:ec:c9:7d:cd:50:79:6c:66:76:
         95:2f:32:d2:f1:ea:97:07:6d:f9:01:d5:7c:6e:04:da:2b:d6:
         69:42:5b:7c:33:4c:d9:90:ff:95:59:4a:5e:6e:24:36:8a:ea:
         27:8b:ce:4f:24:a9:25:94:b1:c6:16:41:5e:28:b8:7a:ec:93:
         19:9f:31:0d:b1:a0:68:db:fe:af:76:74:fa:32:8c:cb:28:c3:
         17:46:95:0c:be:50:0a:bf:90:46:93:de:4b:9e:82:d6:bc:69:
         d6:d1:59:a7:2e:68:14:0e:a0:d1:4b:b1:ba:6a:a4:e1:00:dd:
         dd:73:a4:66:7c:54:93:bb
-----BEGIN CERTIFICATE-----
MIIGUDCCBDigAwIBAgIQR29uZ0xpYW55YW5nIBMBcDANBgkqhkiG9w0BAQsFADBs
MQswCQYDVQQLDAJlYzEPMA0GA1UECgwGSHVhd2VpMREwDwYDVQQHDAhTaGVuWmhl
bjESMBAGA1UECAwJR3VhbmdEb25nMQswCQYDVQQGEwJDTjEYMBYGA1UEAwwPd3d3
LmV4YW1wbGUuY29tMCIYDzIwMTYwNDE4MDAwMDAwWhgPMjA5OTEyMzEyMzU5NTla
MGwxCzAJBgNVBAsMAmVjMQ8wDQYDVQQKDAZIdWF3ZWkxETAPBgNVBAcMCFNoZW5a
aGVuMRIwEAYDVQQIDAlHdWFuZ0RvbmcxCzAJBgNVBAYTAkNOMRgwFgYDVQQDDA93
d3cuZXhhbXBsZS5jb20wggIiMA0GCSqGSIb3DQEBAQUAA4ICDwAwggIKAoICAQDo
BWGxW0l8OthYgK28xJBlsrkyB0P57j5YOo9JXD7mtjf584zh1cwgeKCgtgObQjBN
GgP6cEgvIZlgvGvcGVnCiuIDIBrrcftQ50VKtIzNksuRvn1RoYgPSl6Zc1oHPhxk
HudlEBojn3sw2Zp5m1RBEjQElMFiS4bKNGgJvVil3VueApIKQxOdc6xm7hputIiK
QUk7zr2Yky/wow8CJmrFlNllUusgp9gr8ZEw8CV9qEHfwFQQOa0Cj0e9U98OVHSD
g80j2ZlanMpPlBgntAgsG3bGmaBFWmBpJ3hjcuk8vlpxytQ2F2O3y+RyqdBuKyX7
xyR3dRD9xcMgh6meMe3x//Wz69R7KRJSIP1f9+iGWZs1x7bsl0xizAXpDZ+OM9ft
EiTDcFwlApXT/qK9CghXB9k8TMzMSLZL6rXflbqC03T3n69Kn0T/AaobkECXHtKl
TAncI8HJpwKNK+J+xrccRmnTPE/05UYjXuRqQyXUtyOVZFL80NehPy7UQmQXt/d/
1yjV/VimJySftjf3mK6GBCuAqRtT6TAm0RsRJ2Lf//RYkL1Ql8aoVNRMLwN8h8RY
Xv4/SXrhbLfHilvSTxdGlrwSC5JV78zW1L+IlWG7Ibgyq4k9XPHcVofolxHAeRHL
48PE0xAXA+pszPkWTIjAwgwZHPiFsDn8EzQimNsrDQIDAQABo4HpMIHmMAwGA1Ud
EwQFMAMBAf8wCwYDVR0PBAQDAgEGMFYGCWCGSAGG+EIBDQRJFkdIdWF3ZWkgU3dp
dGNoICYgRW50ZXJwcmlzZSBDb21tdW5pY2F0aW9ucyBQcm9kdWN0IExpbmUgUm9v
dCBDZXJ0aWZpY2F0ZTAdBgNVHQ4EFgQUguddt7yS2s45BOKG8slDAqMsnwowHwYD
VR0jBBgwFoAUguddt7yS2s45BOKG8slDAqMsnwowMQYDVR0lBCowKAYIKwYBBQUH
AwEGCCsGAQUFBwMCBggrBgEFBQcDAwYIKwYBBQUHAwQwDQYJKoZIhvcNAQELBQAD
ggIBAJqMhLrqr46+75dWhyChc017oIYEWq9uYaRwyp4Ln0KaqnaW6v7TQc73wExQ
ETOXAIKb9OjpaknUVvZ7rXItKvSoi4AhomwQjq6Ub4brwwJQaL9dVx1Qg4t+zaC0
Mum//HlSvIZi086ds7U7rRFbZZsZKWWmd7y1YS+2OHxdLl5khNHhNlVEZ0TxYdBZ
kT3WOBN33mZbgRP8yzAQ2cNU3hl+vteY+cYoSSa7rRw/QIJl01ZwCbIzKWmmaFT7
vuVayjamx+3MXBnj+p78H6+/+l9qssm7H9lDtENwFNeZvg9WNnlyISZn9PF2f4Oj
qCb8Ruum9atOhA5m48/QSVD/fttCyZQq3LV7IXc9SsKdc3hu10ka9IgRr6ZwXS8Q
QJxRqPOvrzJmsZlr6pwhm5Uw8at7ka5WKaD6TgEd90kpEhdDMYIb+s55kEINzOuW
vhOMolTVIL+TXEYOVWQa8BQ8miGbOeAYBft9ZgJOfy2L011Di7eG4+Q4l/cTgJ9o
wP4P0XHlpuzJfc1QeWxmdpUvMtLx6pcHbfkB1XxuBNor1mlCW3wzTNmQ/5VZSl5u
JDaK6ieLzk8kqSWUscYWQV4ouHrskxmfMQ2xoGjb/q92dPoyjMsowxdGlQy+UAq/
kEaT3kuegta8adbRWacuaBQOoNFLsbpqpOEA3d1zpGZ8VJO7
-----END CERTIFICATE-----
