Certificate:
    Data:
        Version: 3 (0x2)
        Serial Number: 1 (0x1)
    Signature Algorithm: sha256WithRSAEncryption
        Issuer: C=CN, ST=JIANGSU, L=SUZHOU, O=HUAWEI, OU=CoreNet, CN=CloudEC
        Validity
            Not Before: Oct 11 11:07:15 2018 GMT
            Not After : Sep 17 11:07:15 2118 GMT
        Subject: C=CN, ST=JIANGSU, O=HUAWEI, OU=CoreNet, CN=localhost.cloudec.huaweicloud.com
        Subject Public Key Info:
            Public Key Algorithm: rsaEncryption
                Public-Key: (2048 bit)
                Modulus:
                    00:c3:f5:dc:d1:35:20:0f:a2:0e:ed:c9:5f:9e:49:
                    53:d2:fc:05:b7:36:b8:5a:f6:1f:4a:cf:8b:28:e0:
                    82:0b:e6:f7:86:68:d9:17:ff:e9:54:ee:d1:ec:50:
                    3a:1a:a5:a1:5e:01:10:2d:60:af:fb:f6:a4:ea:ea:
                    84:cd:ff:8e:f4:ee:ad:a0:ce:8a:dc:c0:5c:07:eb:
                    14:83:1d:1f:96:a0:e6:0d:64:7f:b2:82:83:ad:c7:
                    0c:e3:67:43:a2:d7:e1:2a:09:cf:19:3a:35:a7:28:
                    81:10:de:6d:ba:70:f8:78:e7:bb:f2:f0:e3:e3:fd:
                    a9:86:15:71:5c:35:1d:89:70:aa:b7:18:73:1e:db:
                    f7:89:bd:14:78:6e:ae:82:81:a6:65:fc:72:a8:5d:
                    50:f6:84:d1:54:98:78:30:83:67:b5:e4:0a:3b:97:
                    4c:83:e0:a5:60:80:27:6e:8a:98:77:13:c3:56:63:
                    2b:4e:8d:19:2a:ce:d0:78:48:4d:62:82:db:80:82:
                    0f:53:f8:c5:4d:c7:b7:ea:66:06:b3:2d:d2:20:81:
                    62:c9:82:78:16:2f:4e:c3:e5:d0:8a:46:00:07:7b:
                    c2:17:c1:31:70:6f:a6:15:08:63:1c:ba:93:ec:fd:
                    47:78:83:f5:d4:d8:ea:f6:d1:32:6a:ca:60:e3:35:
                    ef:b9
                Exponent: 65537 (0x10001)
        X509v3 extensions:
            X509v3 Basic Constraints: 
                CA:FALSE
            X509v3 Key Usage: 
                Digital Signature, Non Repudiation, Key Encipherment
            X509v3 Subject Alternative Name: 
                DNS:localhost.cloudec.huaweicloud.com
    Signature Algorithm: sha256WithRSAEncryption
         28:8b:e2:2a:df:3d:2e:69:53:ac:cd:ce:a5:46:f3:db:f8:5e:
         7f:76:a8:6b:78:7d:c9:f6:03:75:ef:15:6b:07:ec:a1:dd:e8:
         64:eb:28:bb:53:58:a0:53:a2:6f:a5:4a:b3:76:b1:e2:b5:05:
         d5:42:30:8c:34:11:0f:64:b9:28:11:59:b1:42:96:7b:b1:bc:
         26:61:db:8c:49:6c:24:1d:68:59:72:0e:d0:96:91:3a:84:f8:
         41:89:9f:be:8c:8c:ea:dd:44:e5:d7:4d:11:7e:03:ad:bd:6d:
         33:ac:9d:7d:01:88:23:82:25:61:79:0a:a7:de:bd:b6:04:4f:
         13:fb:5c:42:87:d7:ad:61:f8:31:2b:b9:1d:9a:f9:f4:a4:85:
         73:ec:cf:c6:70:9b:a4:f3:77:fe:fa:2d:a9:16:dc:8e:a5:77:
         ce:fd:a8:96:d4:5f:d3:f6:87:55:68:77:c2:0b:d5:73:71:f2:
         d2:69:64:4f:2e:58:98:1f:b7:41:40:67:77:6d:27:4e:3b:dd:
         7a:df:5e:97:4a:06:cb:e7:e0:1a:5e:fc:9e:b0:c2:24:b7:9e:
         95:1c:b9:3a:1a:a7:c4:44:ea:43:79:c8:64:6e:03:34:95:02:
         29:0d:d0:a4:7f:5d:2e:4f:c8:6c:24:80:42:00:7e:65:cc:72:
         83:36:20:14
-----BEGIN CERTIFICATE-----
MIIDmDCCAoCgAwIBAgIBATANBgkqhkiG9w0BAQsFADBlMQswCQYDVQQGEwJDTjEQ
MA4GA1UECAwHSklBTkdTVTEPMA0GA1UEBwwGU1VaSE9VMQ8wDQYDVQQKDAZIVUFX
RUkxEDAOBgNVBAsMB0NvcmVOZXQxEDAOBgNVBAMMB0Nsb3VkRUMwIBcNMTgxMDEx
MTEwNzE1WhgPMjExODA5MTcxMTA3MTVaMG4xCzAJBgNVBAYTAkNOMRAwDgYDVQQI
DAdKSUFOR1NVMQ8wDQYDVQQKDAZIVUFXRUkxEDAOBgNVBAsMB0NvcmVOZXQxKjAo
BgNVBAMMIWxvY2FsaG9zdC5jbG91ZGVjLmh1YXdlaWNsb3VkLmNvbTCCASIwDQYJ
KoZIhvcNAQEBBQADggEPADCCAQoCggEBAMP13NE1IA+iDu3JX55JU9L8Bbc2uFr2
H0rPiyjgggvm94Zo2Rf/6VTu0exQOhqloV4BEC1gr/v2pOrqhM3/jvTuraDOitzA
XAfrFIMdH5ag5g1kf7KCg63HDONnQ6LX4SoJzxk6NacogRDebbpw+Hjnu/Lw4+P9
qYYVcVw1HYlwqrcYcx7b94m9FHhuroKBpmX8cqhdUPaE0VSYeDCDZ7XkCjuXTIPg
pWCAJ26KmHcTw1ZjK06NGSrO0HhITWKC24CCD1P4xU3Ht+pmBrMt0iCBYsmCeBYv
TsPl0IpGAAd7whfBMXBvphUIYxy6k+z9R3iD9dTY6vbRMmrKYOM177kCAwEAAaNI
MEYwCQYDVR0TBAIwADALBgNVHQ8EBAMCBeAwLAYDVR0RBCUwI4IhbG9jYWxob3N0
LmNsb3VkZWMuaHVhd2VpY2xvdWQuY29tMA0GCSqGSIb3DQEBCwUAA4IBAQAoi+Iq
3z0uaVOszc6lRvPb+F5/dqhreH3J9gN17xVrB+yh3ehk6yi7U1igU6JvpUqzdrHi
tQXVQjCMNBEPZLkoEVmxQpZ7sbwmYduMSWwkHWhZcg7QlpE6hPhBiZ++jIzq3UTl
100RfgOtvW0zrJ19AYgjgiVheQqn3r22BE8T+1xCh9etYfgxK7kdmvn0pIVz7M/G
cJuk83f++i2pFtyOpXfO/aiW1F/T9odVaHfCC9VzcfLSaWRPLliYH7dBQGd3bSdO
O916316XSgbL5+AaXvyesMIkt56VHLk6GqfEROpDechkbgM0lQIpDdCkf10uT8hs
JIBCAH5lzHKDNiAU
-----END CERTIFICATE-----
